target datalayout = "e-m:e-p270:32:32-p271:32:32-p272:64:64-i64:64-i128:128-f80:128-n8:16:32:64-S128"
target triple = "x86_64-pc-linux-gnu"

%struct.SurfaceDataRasInfo = type { %struct.SurfaceDataBounds, ptr, i32, i32, i32, i32, ptr, ptr, ptr, ptr, ptr, ptr, i32, %union.anon.0 }
%struct.SurfaceDataBounds = type { i32, i32, i32, i32 }
%union.anon.0 = type { ptr, [56 x i8] }

; Function Attrs: nounwind uwtable
define hidden void @ByteBinary4BitToIntArgbConvert(ptr noundef %0, ptr noundef %1, i32 noundef %2, i32 noundef %3, ptr noundef %4, ptr noundef %5, ptr noundef %6, ptr noundef %7) #0 {
  %9 = alloca ptr, align 8
  %10 = alloca ptr, align 8
  %11 = alloca i32, align 4
  %12 = alloca i32, align 4
  %13 = alloca ptr, align 8
  %14 = alloca ptr, align 8
  %15 = alloca ptr, align 8
  %16 = alloca ptr, align 8
  %17 = alloca ptr, align 8
  %18 = alloca ptr, align 8
  %19 = alloca ptr, align 8
  %20 = alloca i32, align 4
  %21 = alloca i32, align 4
  %22 = alloca i32, align 4
  %23 = alloca i32, align 4
  %24 = alloca i32, align 4
  %25 = alloca i32, align 4
  %26 = alloca i32, align 4
  %27 = alloca i32, align 4
  %28 = alloca i32, align 4
  %29 = alloca i32, align 4
  store ptr %0, ptr %9, align 8
  store ptr %1, ptr %10, align 8
  store i32 %2, ptr %11, align 4
  store i32 %3, ptr %12, align 4
  store ptr %4, ptr %13, align 8
  store ptr %5, ptr %14, align 8
  store ptr %6, ptr %15, align 8
  store ptr %7, ptr %16, align 8
  %30 = load ptr, ptr %13, align 8
  %31 = getelementptr inbounds %struct.SurfaceDataRasInfo, ptr %30, i32 0, i32 6
  %32 = load ptr, ptr %31, align 8
  store ptr %32, ptr %17, align 8
  br label %33

33:                                               ; preds = %8
  %34 = load ptr, ptr %9, align 8
  store ptr %34, ptr %18, align 8
  %35 = load ptr, ptr %10, align 8
  store ptr %35, ptr %19, align 8
  %36 = load ptr, ptr %13, align 8
  %37 = getelementptr inbounds %struct.SurfaceDataRasInfo, ptr %36, i32 0, i32 4
  %38 = load i32, ptr %37, align 8
  store i32 %38, ptr %20, align 4
  %39 = load ptr, ptr %14, align 8
  %40 = getelementptr inbounds %struct.SurfaceDataRasInfo, ptr %39, i32 0, i32 4
  %41 = load i32, ptr %40, align 8
  store i32 %41, ptr %21, align 4
  %42 = load ptr, ptr %13, align 8
  %43 = getelementptr inbounds %struct.SurfaceDataRasInfo, ptr %42, i32 0, i32 0
  %44 = getelementptr inbounds %struct.SurfaceDataBounds, ptr %43, i32 0, i32 0
  %45 = load i32, ptr %44, align 8
  store i32 %45, ptr %22, align 4
  %46 = load ptr, ptr %14, align 8
  %47 = getelementptr inbounds %struct.SurfaceDataRasInfo, ptr %46, i32 0, i32 0
  %48 = getelementptr inbounds %struct.SurfaceDataBounds, ptr %47, i32 0, i32 0
  %49 = load i32, ptr %48, align 8
  store i32 %49, ptr %23, align 4
  %50 = load i32, ptr %11, align 4
  %51 = mul i32 %50, 0
  %52 = load i32, ptr %20, align 4
  %53 = sub i32 %52, %51
  store i32 %53, ptr %20, align 4
  %54 = load i32, ptr %11, align 4
  %55 = mul i32 %54, 4
  %56 = load i32, ptr %21, align 4
  %57 = sub i32 %56, %55
  store i32 %57, ptr %21, align 4
  br label %58

58:                                               ; preds = %138, %33
  %59 = load i32, ptr %22, align 4
  %60 = load ptr, ptr %13, align 8
  %61 = getelementptr inbounds %struct.SurfaceDataRasInfo, ptr %60, i32 0, i32 2
  %62 = load i32, ptr %61, align 8
  %63 = sdiv i32 %62, 4
  %64 = add nsw i32 %59, %63
  store i32 %64, ptr %24, align 4
  %65 = load i32, ptr %24, align 4
  %66 = sdiv i32 %65, 2
  store i32 %66, ptr %25, align 4
  %67 = load i32, ptr %24, align 4
  %68 = srem i32 %67, 2
  %69 = mul nsw i32 %68, 4
  %70 = sub nsw i32 4, %69
  store i32 %70, ptr %26, align 4
  %71 = load ptr, ptr %18, align 8
  %72 = load i32, ptr %25, align 4
  %73 = sext i32 %72 to i64
  %74 = getelementptr inbounds i8, ptr %71, i64 %73
  %75 = load i8, ptr %74, align 1
  %76 = zext i8 %75 to i32
  store i32 %76, ptr %27, align 4
  %77 = load i32, ptr %11, align 4
  store i32 %77, ptr %28, align 4
  br label %78

78:                                               ; preds = %121, %58
  br label %79

79:                                               ; preds = %78
  %80 = load i32, ptr %26, align 4
  %81 = icmp slt i32 %80, 0
  br i1 %81, label %82, label %96

82:                                               ; preds = %79
  %83 = load i32, ptr %27, align 4
  %84 = trunc i32 %83 to i8
  %85 = load ptr, ptr %18, align 8
  %86 = load i32, ptr %25, align 4
  %87 = sext i32 %86 to i64
  %88 = getelementptr inbounds i8, ptr %85, i64 %87
  store i8 %84, ptr %88, align 1
  %89 = load ptr, ptr %18, align 8
  %90 = load i32, ptr %25, align 4
  %91 = add nsw i32 %90, 1
  store i32 %91, ptr %25, align 4
  %92 = sext i32 %91 to i64
  %93 = getelementptr inbounds i8, ptr %89, i64 %92
  %94 = load i8, ptr %93, align 1
  %95 = zext i8 %94 to i32
  store i32 %95, ptr %27, align 4
  store i32 4, ptr %26, align 4
  br label %96

96:                                               ; preds = %82, %79
  br label %97

97:                                               ; preds = %96
  br label %98

98:                                               ; preds = %97
  %99 = load ptr, ptr %17, align 8
  %100 = load i32, ptr %27, align 4
  %101 = load i32, ptr %26, align 4
  %102 = ashr i32 %100, %101
  %103 = and i32 %102, 15
  %104 = sext i32 %103 to i64
  %105 = getelementptr inbounds i32, ptr %99, i64 %104
  %106 = load i32, ptr %105, align 4
  store i32 %106, ptr %29, align 4
  %107 = load i32, ptr %29, align 4
  %108 = load ptr, ptr %19, align 8
  %109 = getelementptr inbounds i32, ptr %108, i64 0
  store i32 %107, ptr %109, align 4
  br label %110

110:                                              ; preds = %98
  %111 = load i32, ptr %26, align 4
  %112 = sub nsw i32 %111, 4
  store i32 %112, ptr %26, align 4
  %113 = load ptr, ptr %18, align 8
  %114 = ptrtoint ptr %113 to i64
  %115 = add nsw i64 %114, 0
  %116 = inttoptr i64 %115 to ptr
  store ptr %116, ptr %18, align 8
  %117 = load ptr, ptr %19, align 8
  %118 = ptrtoint ptr %117 to i64
  %119 = add nsw i64 %118, 4
  %120 = inttoptr i64 %119 to ptr
  store ptr %120, ptr %19, align 8
  br label %121

121:                                              ; preds = %110
  %122 = load i32, ptr %28, align 4
  %123 = add i32 %122, -1
  store i32 %123, ptr %28, align 4
  %124 = icmp ugt i32 %123, 0
  br i1 %124, label %78, label %125, !llvm.loop !32

125:                                              ; preds = %121
  %126 = load ptr, ptr %18, align 8
  %127 = ptrtoint ptr %126 to i64
  %128 = load i32, ptr %20, align 4
  %129 = sext i32 %128 to i64
  %130 = add nsw i64 %127, %129
  %131 = inttoptr i64 %130 to ptr
  store ptr %131, ptr %18, align 8
  %132 = load ptr, ptr %19, align 8
  %133 = ptrtoint ptr %132 to i64
  %134 = load i32, ptr %21, align 4
  %135 = sext i32 %134 to i64
  %136 = add nsw i64 %133, %135
  %137 = inttoptr i64 %136 to ptr
  store ptr %137, ptr %19, align 8
  br label %138

138:                                              ; preds = %125
  %139 = load i32, ptr %12, align 4
  %140 = add i32 %139, -1
  store i32 %140, ptr %12, align 4
  %141 = icmp ugt i32 %140, 0
  br i1 %141, label %58, label %142, !llvm.loop !33

142:                                              ; preds = %138
  br label %143

143:                                              ; preds = %142
  ret void
}