; Function Attrs: nofree norecurse nosync nounwind memory(readwrite, inaccessiblemem: none) uwtable
define hidden void @ByteBinary4BitToIntArgbConvert(ptr noundef %0, ptr noundef %1, i32 noundef %2, i32 noundef %3, ptr nocapture noundef readonly %4, ptr nocapture noundef readonly %5, ptr nocapture readnone %6, ptr nocapture readnone %7) #0 {
  %9 = getelementptr inbounds i8, ptr %4, i64 40
  %10 = load ptr, ptr %9, align 8
  %11 = getelementptr inbounds i8, ptr %4, i64 32
  %12 = load i32, ptr %11, align 8
  %13 = getelementptr inbounds i8, ptr %5, i64 32
  %14 = load i32, ptr %13, align 8
  %15 = load i32, ptr %4, align 8
  %16 = shl i32 %2, 2
  %17 = sub i32 %14, %16
  %18 = getelementptr inbounds i8, ptr %4, i64 24
  %19 = sext i32 %12 to i64
  %20 = sext i32 %17 to i64
  br label %21

21:                                               ; preds = %55, %8
  %.045 = phi ptr [ %1, %8 ], [ %60, %55 ]
  %.043 = phi ptr [ %0, %8 ], [ %58, %55 ]
  %.0 = phi i32 [ %3, %8 ], [ %61, %55 ]
  %22 = load i32, ptr %18, align 8
  %23 = sdiv i32 %22, 4
  %24 = add nsw i32 %23, %15
  %25 = sdiv i32 %24, 2
  %26 = srem i32 %24, 2
  %27 = shl nsw i32 %26, 2
  %28 = sub nsw i32 4, %27
  %29 = sext i32 %25 to i64
  %30 = getelementptr inbounds i8, ptr %.043, i64 %29
  %31 = load i8, ptr %30, align 1
  %32 = zext i8 %31 to i32
  br label %33

33:                                               ; preds = %44, %21
  %.146 = phi ptr [ %.045, %21 ], [ %53, %44 ]
  %.041 = phi i32 [ %25, %21 ], [ %.142, %44 ]
  %.039 = phi i32 [ %28, %21 ], [ %50, %44 ]
  %.038 = phi i32 [ %32, %21 ], [ %.1, %44 ]
  %.037 = phi i32 [ %2, %21 ], [ %54, %44 ]
  %34 = icmp slt i32 %.039, 0
  br i1 %34, label %35, label %44

35:                                               ; preds = %33
  %36 = trunc nuw i32 %.038 to i8
  %37 = sext i32 %.041 to i64
  %38 = getelementptr inbounds i8, ptr %.043, i64 %37
  store i8 %36, ptr %38, align 1
  %39 = add nsw i32 %.041, 1
  %40 = sext i32 %39 to i64
  %41 = getelementptr inbounds i8, ptr %.043, i64 %40
  %42 = load i8, ptr %41, align 1
  %43 = zext i8 %42 to i32
  br label %44

44:                                               ; preds = %35, %33
  %.142 = phi i32 [ %39, %35 ], [ %.041, %33 ]
  %.140 = phi i32 [ 4, %35 ], [ %.039, %33 ]
  %.1 = phi i32 [ %43, %35 ], [ %.038, %33 ]
  %45 = lshr i32 %.1, %.140
  %46 = and i32 %45, 15
  %47 = zext nneg i32 %46 to i64
  %48 = getelementptr inbounds i32, ptr %10, i64 %47
  %49 = load i32, ptr %48, align 4
  store i32 %49, ptr %.146, align 4
  %50 = add nsw i32 %.140, -4
  %51 = ptrtoint ptr %.146 to i64
  %52 = add nsw i64 %51, 4
  %53 = inttoptr i64 %52 to ptr
  %54 = add i32 %.037, -1
  %.not = icmp eq i32 %54, 0
  br i1 %.not, label %55, label %33, !llvm.loop !32

55:                                               ; preds = %44
  %56 = ptrtoint ptr %.043 to i64
  %57 = add nsw i64 %56, %19
  %58 = inttoptr i64 %57 to ptr
  %59 = add nsw i64 %52, %20
  %60 = inttoptr i64 %59 to ptr
  %61 = add i32 %.0, -1
  %.not49 = icmp eq i32 %61, 0
  br i1 %.not49, label %62, label %21, !llvm.loop !33

62:                                               ; preds = %55
  ret void
}